target datalayout = "e-m:e-p270:32:32-p271:32:32-p272:64:64-i64:64-i128:128-f80:128-n8:16:32:64-S128"
target triple = "x86_64-unknown-linux-gnu"

%"class.grpc_core::TcpZerocopySendRecord" = type { %struct.grpc_slice_buffer, %"struct.std::atomic", %"struct.grpc_core::TcpZerocopySendRecord::OutgoingOffset" }
%struct.grpc_slice_buffer = type { ptr, ptr, i64, i64, i64, [7 x %struct.grpc_slice] }
%struct.grpc_slice = type { ptr, %"union.grpc_slice::grpc_slice_data" }
%"union.grpc_slice::grpc_slice_data" = type { %"struct.grpc_slice::grpc_slice_data::grpc_slice_refcounted", [8 x i8] }
%"struct.grpc_slice::grpc_slice_data::grpc_slice_refcounted" = type { i64, ptr }
%"struct.std::atomic" = type { %"struct.std::__atomic_base" }
%"struct.std::__atomic_base" = type { i64 }
%"struct.grpc_core::TcpZerocopySendRecord::OutgoingOffset" = type { i64, i64 }
%"struct.grpc_slice::grpc_slice_data::grpc_slice_inlined" = type { i8, [23 x i8] }

; Function Attrs: mustprogress nounwind uwtable
define void @_ZN9grpc_core21TcpZerocopySendRecord24UpdateOffsetForBytesSentEmm(ptr noundef nonnull align 8 dereferenceable(288) %this, i64 noundef %sending_length, i64 noundef %actually_sent) #6 align 2 {
entry:
  %this.addr = alloca ptr, align 8
  %sending_length.addr = alloca i64, align 8
  %actually_sent.addr = alloca i64, align 8
  %trailing = alloca i64, align 8
  %slice_length = alloca i64, align 8
  store ptr %this, ptr %this.addr, align 8
  store i64 %sending_length, ptr %sending_length.addr, align 8
  store i64 %actually_sent, ptr %actually_sent.addr, align 8
  %this1 = load ptr, ptr %this.addr, align 8
  %0 = load i64, ptr %sending_length.addr, align 8
  %1 = load i64, ptr %actually_sent.addr, align 8
  %sub = sub i64 %0, %1
  store i64 %sub, ptr %trailing, align 8
  br label %while.cond

while.cond:                                       ; preds = %if.end, %entry
  %2 = load i64, ptr %trailing, align 8
  %cmp = icmp ugt i64 %2, 0
  br i1 %cmp, label %while.body, label %while.end

while.body:                                       ; preds = %while.cond
  %out_offset_ = getelementptr inbounds %"class.grpc_core::TcpZerocopySendRecord", ptr %this1, i32 0, i32 2
  %slice_idx = getelementptr inbounds %"struct.grpc_core::TcpZerocopySendRecord::OutgoingOffset", ptr %out_offset_, i32 0, i32 0
  %3 = load i64, ptr %slice_idx, align 8
  %dec = add i64 %3, -1
  store i64 %dec, ptr %slice_idx, align 8
  %buf_ = getelementptr inbounds %"class.grpc_core::TcpZerocopySendRecord", ptr %this1, i32 0, i32 0
  %slices = getelementptr inbounds %struct.grpc_slice_buffer, ptr %buf_, i32 0, i32 1
  %4 = load ptr, ptr %slices, align 8
  %out_offset_2 = getelementptr inbounds %"class.grpc_core::TcpZerocopySendRecord", ptr %this1, i32 0, i32 2
  %slice_idx3 = getelementptr inbounds %"struct.grpc_core::TcpZerocopySendRecord::OutgoingOffset", ptr %out_offset_2, i32 0, i32 0
  %5 = load i64, ptr %slice_idx3, align 8
  %arrayidx = getelementptr inbounds %struct.grpc_slice, ptr %4, i64 %5
  %refcount = getelementptr inbounds %struct.grpc_slice, ptr %arrayidx, i32 0, i32 0
  %6 = load ptr, ptr %refcount, align 8
  %tobool = icmp ne ptr %6, null
  br i1 %tobool, label %cond.true, label %cond.false

cond.true:                                        ; preds = %while.body
  %buf_4 = getelementptr inbounds %"class.grpc_core::TcpZerocopySendRecord", ptr %this1, i32 0, i32 0
  %slices5 = getelementptr inbounds %struct.grpc_slice_buffer, ptr %buf_4, i32 0, i32 1
  %7 = load ptr, ptr %slices5, align 8
  %out_offset_6 = getelementptr inbounds %"class.grpc_core::TcpZerocopySendRecord", ptr %this1, i32 0, i32 2
  %slice_idx7 = getelementptr inbounds %"struct.grpc_core::TcpZerocopySendRecord::OutgoingOffset", ptr %out_offset_6, i32 0, i32 0
  %8 = load i64, ptr %slice_idx7, align 8
  %arrayidx8 = getelementptr inbounds %struct.grpc_slice, ptr %7, i64 %8
  %data = getelementptr inbounds %struct.grpc_slice, ptr %arrayidx8, i32 0, i32 1
  %length = getelementptr inbounds %"struct.grpc_slice::grpc_slice_data::grpc_slice_refcounted", ptr %data, i32 0, i32 0
  %9 = load i64, ptr %length, align 8
  br label %cond.end

cond.false:                                       ; preds = %while.body
  %buf_9 = getelementptr inbounds %"class.grpc_core::TcpZerocopySendRecord", ptr %this1, i32 0, i32 0
  %slices10 = getelementptr inbounds %struct.grpc_slice_buffer, ptr %buf_9, i32 0, i32 1
  %10 = load ptr, ptr %slices10, align 8
  %out_offset_11 = getelementptr inbounds %"class.grpc_core::TcpZerocopySendRecord", ptr %this1, i32 0, i32 2
  %slice_idx12 = getelementptr inbounds %"struct.grpc_core::TcpZerocopySendRecord::OutgoingOffset", ptr %out_offset_11, i32 0, i32 0
  %11 = load i64, ptr %slice_idx12, align 8
  %arrayidx13 = getelementptr inbounds %struct.grpc_slice, ptr %10, i64 %11
  %data14 = getelementptr inbounds %struct.grpc_slice, ptr %arrayidx13, i32 0, i32 1
  %length15 = getelementptr inbounds %"struct.grpc_slice::grpc_slice_data::grpc_slice_inlined", ptr %data14, i32 0, i32 0
  %12 = load i8, ptr %length15, align 8
  %conv = zext i8 %12 to i64
  br label %cond.end

cond.end:                                         ; preds = %cond.false, %cond.true
  %cond = phi i64 [ %9, %cond.true ], [ %conv, %cond.false ]
  store i64 %cond, ptr %slice_length, align 8
  %13 = load i64, ptr %slice_length, align 8
  %14 = load i64, ptr %trailing, align 8
  %cmp16 = icmp ugt i64 %13, %14
  br i1 %cmp16, label %if.then, label %if.else

if.then:                                          ; preds = %cond.end
  %15 = load i64, ptr %slice_length, align 8
  %16 = load i64, ptr %trailing, align 8
  %sub17 = sub i64 %15, %16
  %out_offset_18 = getelementptr inbounds %"class.grpc_core::TcpZerocopySendRecord", ptr %this1, i32 0, i32 2
  %byte_idx = getelementptr inbounds %"struct.grpc_core::TcpZerocopySendRecord::OutgoingOffset", ptr %out_offset_18, i32 0, i32 1
  store i64 %sub17, ptr %byte_idx, align 8
  br label %while.end

if.else:                                          ; preds = %cond.end
  %17 = load i64, ptr %slice_length, align 8
  %18 = load i64, ptr %trailing, align 8
  %sub19 = sub i64 %18, %17
  store i64 %sub19, ptr %trailing, align 8
  br label %if.end

if.end:                                           ; preds = %if.else
  br label %while.cond, !llvm.loop !7

while.end:                                        ; preds = %if.then, %while.cond
  ret void
}