; Function Attrs: mustprogress nofree norecurse nosync nounwind memory(read, argmem: readwrite, inaccessiblemem: none) uwtable
define void @_ZN9grpc_core21TcpZerocopySendRecord24UpdateOffsetForBytesSentEmm(ptr nocapture noundef nonnull align 8 dereferenceable(288) %this, i64 noundef %sending_length, i64 noundef %actually_sent) local_unnamed_addr #5 align 2 {
entry:
  %sub = sub i64 %sending_length, %actually_sent
  %cmp.not7 = icmp eq i64 %sub, 0
  br i1 %cmp.not7, label %while.end, label %while.body.lr.ph

while.body.lr.ph:                                 ; preds = %entry
  %out_offset_ = getelementptr inbounds i8, ptr %this, i64 272
  %slices = getelementptr inbounds i8, ptr %this, i64 8
  %0 = load ptr, ptr %slices, align 8
  %out_offset_.promoted = load i64, ptr %out_offset_, align 8
  br label %while.body

while.body:                                       ; preds = %while.body.lr.ph, %if.else
  %dec9 = phi i64 [ %out_offset_.promoted, %while.body.lr.ph ], [ %dec, %if.else ]
  %trailing.08 = phi i64 [ %sub, %while.body.lr.ph ], [ %sub19, %if.else ]
  %dec = add i64 %dec9, -1
  store i64 %dec, ptr %out_offset_, align 8
  %arrayidx = getelementptr inbounds %struct.grpc_slice, ptr %0, i64 %dec
  %1 = load ptr, ptr %arrayidx, align 8
  %tobool.not = icmp eq ptr %1, null
  %data14 = getelementptr inbounds i8, ptr %arrayidx, i64 8
  br i1 %tobool.not, label %cond.false, label %cond.true

cond.true:                                        ; preds = %while.body
  %2 = load i64, ptr %data14, align 8
  br label %cond.end

cond.false:                                       ; preds = %while.body
  %3 = load i8, ptr %data14, align 8
  %conv = zext i8 %3 to i64
  br label %cond.end

cond.end:                                         ; preds = %cond.false, %cond.true
  %cond = phi i64 [ %2, %cond.true ], [ %conv, %cond.false ]
  %cmp16 = icmp ugt i64 %cond, %trailing.08
  br i1 %cmp16, label %if.then, label %if.else

if.then:                                          ; preds = %cond.end
  %sub17 = sub i64 %cond, %trailing.08
  %byte_idx = getelementptr inbounds i8, ptr %this, i64 280
  store i64 %sub17, ptr %byte_idx, align 8
  br label %while.end

if.else:                                          ; preds = %cond.end
  %sub19 = sub i64 %trailing.08, %cond
  %cmp.not = icmp eq i64 %sub19, 0
  br i1 %cmp.not, label %while.end, label %while.body, !llvm.loop !7

while.end:                                        ; preds = %if.else, %entry, %if.then
  ret void
}